; Function Attrs: mustprogress nounwind uwtable
define void @_ZN6icu_7511Formattable7setLongEi(ptr nocapture noundef nonnull align 8 dereferenceable(112) %this, i32 noundef %l) local_unnamed_addr #0 align 2 {
entry:
  tail call void @_ZN6icu_7511Formattable7disposeEv(ptr noundef nonnull align 8 dereferenceable(112) %this)
  %fType = getelementptr inbounds i8, ptr %this, i64 40
  store i32 2, ptr %fType, align 8
  %conv = sext i32 %l to i64
  %fValue = getelementptr inbounds i8, ptr %this, i64 8
  store i64 %conv, ptr %fValue, align 8
  ret void
}